target datalayout = "e-m:e-p270:32:32-p271:32:32-p272:64:64-i64:64-i128:128-f80:128-n8:16:32:64-S128"
target triple = "x86_64-pc-linux-gnu"

%struct.LimitState = type { %struct.PlanState, ptr, ptr, i32, i64, i64, i8, i32, i64, ptr, ptr, ptr }
%struct.PlanState = type { i32, ptr, ptr, ptr, ptr, ptr, ptr, ptr, ptr, ptr, ptr, ptr, ptr, ptr, ptr, ptr, ptr, ptr, i8, ptr, ptr, ptr, ptr, ptr, i8, i8, i8, i8, i8, i8, i8, i8 }
%struct.ExprContext = type { i32, ptr, ptr, ptr, ptr, ptr, ptr, ptr, ptr, ptr, i64, i8, i64, i8, ptr, ptr, ptr, ptr }
%struct.ExprState = type { i32, i8, i8, i64, ptr, ptr, ptr, ptr, ptr, i32, i32, ptr, ptr, ptr, ptr, ptr, ptr, ptr }

@.str.1 = private unnamed_addr constant [12 x i8] c"nodeLimit.c\00", align 1
@CurrentMemoryContext = external global ptr, align 8
@.str.3 = private unnamed_addr constant [28 x i8] c"OFFSET must not be negative\00", align 1
@__func__.recompute_limits = private unnamed_addr constant [17 x i8] c"recompute_limits\00", align 1
@.str.4 = private unnamed_addr constant [27 x i8] c"LIMIT must not be negative\00", align 1

; Function Attrs: inlinehint nounwind uwtable
define internal ptr @MemoryContextSwitchTo(ptr noundef %0) #2 {
  %2 = alloca ptr, align 8
  %3 = alloca ptr, align 8
  store ptr %0, ptr %2, align 8
  call void @llvm.lifetime.start.p0(i64 8, ptr %3) #6
  %4 = load ptr, ptr @CurrentMemoryContext, align 8
  store ptr %4, ptr %3, align 8
  %5 = load ptr, ptr %2, align 8
  store ptr %5, ptr @CurrentMemoryContext, align 8
  %6 = load ptr, ptr %3, align 8
  call void @llvm.lifetime.end.p0(i64 8, ptr %3) #6
  ret ptr %6
}

; Function Attrs: nounwind uwtable
define internal i64 @compute_tuples_needed(ptr noundef %0) #0 {
  %2 = alloca i64, align 8
  %3 = alloca ptr, align 8
  store ptr %0, ptr %3, align 8
  %4 = load ptr, ptr %3, align 8
  %5 = getelementptr inbounds nuw %struct.LimitState, ptr %4, i32 0, i32 6
  %6 = load i8, ptr %5, align 8, !range !4, !noundef !5
  %7 = trunc i8 %6 to i1
  br i1 %7, label %13, label %8

8:                                                ; preds = %1
  %9 = load ptr, ptr %3, align 8
  %10 = getelementptr inbounds nuw %struct.LimitState, ptr %9, i32 0, i32 3
  %11 = load i32, ptr %10, align 8
  %12 = icmp eq i32 %11, 1
  br i1 %12, label %13, label %14

13:                                               ; preds = %8, %1
  store i64 -1, ptr %2, align 8
  br label %22

14:                                               ; preds = %8
  %15 = load ptr, ptr %3, align 8
  %16 = getelementptr inbounds nuw %struct.LimitState, ptr %15, i32 0, i32 5
  %17 = load i64, ptr %16, align 8
  %18 = load ptr, ptr %3, align 8
  %19 = getelementptr inbounds nuw %struct.LimitState, ptr %18, i32 0, i32 4
  %20 = load i64, ptr %19, align 8
  %21 = add i64 %17, %20
  store i64 %21, ptr %2, align 8
  br label %22

22:                                               ; preds = %14, %13
  %23 = load i64, ptr %2, align 8
  ret i64 %23
}

; Function Attrs: inlinehint nounwind uwtable
define internal i64 @DatumGetInt64(i64 noundef %0) #2 {
  %2 = alloca i64, align 8
  store i64 %0, ptr %2, align 8
  %3 = load i64, ptr %2, align 8
  ret i64 %3
}

; Function Attrs: inlinehint nounwind uwtable
define internal i64 @ExecEvalExprSwitchContext(ptr noundef %0, ptr noundef %1, ptr noundef %2) #2 {
  %4 = alloca ptr, align 8
  %5 = alloca ptr, align 8
  %6 = alloca ptr, align 8
  %7 = alloca i64, align 8
  %8 = alloca ptr, align 8
  store ptr %0, ptr %4, align 8
  store ptr %1, ptr %5, align 8
  store ptr %2, ptr %6, align 8
  call void @llvm.lifetime.start.p0(i64 8, ptr %7) #6
  call void @llvm.lifetime.start.p0(i64 8, ptr %8) #6
  %9 = load ptr, ptr %5, align 8
  %10 = getelementptr inbounds nuw %struct.ExprContext, ptr %9, i32 0, i32 5
  %11 = load ptr, ptr %10, align 8
  %12 = call ptr @MemoryContextSwitchTo(ptr noundef %11)
  store ptr %12, ptr %8, align 8
  %13 = load ptr, ptr %4, align 8
  %14 = getelementptr inbounds nuw %struct.ExprState, ptr %13, i32 0, i32 6
  %15 = load ptr, ptr %14, align 8
  %16 = load ptr, ptr %4, align 8
  %17 = load ptr, ptr %5, align 8
  %18 = load ptr, ptr %6, align 8
  %19 = call i64 %15(ptr noundef %16, ptr noundef %17, ptr noundef %18)
  store i64 %19, ptr %7, align 8
  %20 = load ptr, ptr %8, align 8
  %21 = call ptr @MemoryContextSwitchTo(ptr noundef %20)
  %22 = load i64, ptr %7, align 8
  call void @llvm.lifetime.end.p0(i64 8, ptr %8) #6
  call void @llvm.lifetime.end.p0(i64 8, ptr %7) #6
  ret i64 %22
}

; Function Attrs: nounwind uwtable
define internal void @recompute_limits(ptr noundef %0) #0 {
  %2 = alloca ptr, align 8
  %3 = alloca ptr, align 8
  %4 = alloca i64, align 8
  %5 = alloca i8, align 1
  store ptr %0, ptr %2, align 8
  call void @llvm.lifetime.start.p0(i64 8, ptr %3) #6
  %6 = load ptr, ptr %2, align 8
  %7 = getelementptr inbounds nuw %struct.LimitState, ptr %6, i32 0, i32 0
  %8 = getelementptr inbounds nuw %struct.PlanState, ptr %7, i32 0, i32 16
  %9 = load ptr, ptr %8, align 8
  store ptr %9, ptr %3, align 8
  call void @llvm.lifetime.start.p0(i64 8, ptr %4) #6
  call void @llvm.lifetime.start.p0(i64 1, ptr %5) #6
  %10 = load ptr, ptr %2, align 8
  %11 = getelementptr inbounds nuw %struct.LimitState, ptr %10, i32 0, i32 1
  %12 = load ptr, ptr %11, align 8
  %13 = icmp ne ptr %12, null
  br i1 %13, label %14, label %48

14:                                               ; preds = %1
  %15 = load ptr, ptr %2, align 8
  %16 = getelementptr inbounds nuw %struct.LimitState, ptr %15, i32 0, i32 1
  %17 = load ptr, ptr %16, align 8
  %18 = load ptr, ptr %3, align 8
  %19 = call i64 @ExecEvalExprSwitchContext(ptr noundef %17, ptr noundef %18, ptr noundef %5)
  store i64 %19, ptr %4, align 8
  %20 = load i8, ptr %5, align 1, !range !4, !noundef !5
  %21 = trunc i8 %20 to i1
  br i1 %21, label %22, label %25

22:                                               ; preds = %14
  %23 = load ptr, ptr %2, align 8
  %24 = getelementptr inbounds nuw %struct.LimitState, ptr %23, i32 0, i32 4
  store i64 0, ptr %24, align 8
  br label %47

25:                                               ; preds = %14
  %26 = load i64, ptr %4, align 8
  %27 = call i64 @DatumGetInt64(i64 noundef %26)
  %28 = load ptr, ptr %2, align 8
  %29 = getelementptr inbounds nuw %struct.LimitState, ptr %28, i32 0, i32 4
  store i64 %27, ptr %29, align 8
  %30 = load ptr, ptr %2, align 8
  %31 = getelementptr inbounds nuw %struct.LimitState, ptr %30, i32 0, i32 4
  %32 = load i64, ptr %31, align 8
  %33 = icmp slt i64 %32, 0
  br i1 %33, label %34, label %46

34:                                               ; preds = %25
  br label %35

35:                                               ; preds = %34
  br i1 true, label %36, label %38

36:                                               ; preds = %35
  %37 = call zeroext i1 @errstart_cold(i32 noundef 21, ptr noundef null) #7
  br i1 %37, label %40, label %43

38:                                               ; preds = %35
  %39 = call zeroext i1 @errstart(i32 noundef 21, ptr noundef null)
  br i1 %39, label %40, label %43

40:                                               ; preds = %38, %36
  %41 = call i32 @errcode(i32 noundef 671350914)
  %42 = call i32 (ptr, ...) @errmsg(ptr noundef @.str.3)
  call void @errfinish(ptr noundef @.str.1, i32 noundef 373, ptr noundef @__func__.recompute_limits)
  br label %43

43:                                               ; preds = %40, %38, %36
  unreachable

44:                                               ; No predecessors!
  br label %45

45:                                               ; preds = %44
  br label %46

46:                                               ; preds = %45, %25
  br label %47

47:                                               ; preds = %46, %22
  br label %51

48:                                               ; preds = %1
  %49 = load ptr, ptr %2, align 8
  %50 = getelementptr inbounds nuw %struct.LimitState, ptr %49, i32 0, i32 4
  store i64 0, ptr %50, align 8
  br label %51

51:                                               ; preds = %48, %47
  %52 = load ptr, ptr %2, align 8
  %53 = getelementptr inbounds nuw %struct.LimitState, ptr %52, i32 0, i32 2
  %54 = load ptr, ptr %53, align 8
  %55 = icmp ne ptr %54, null
  br i1 %55, label %56, label %94

56:                                               ; preds = %51
  %57 = load ptr, ptr %2, align 8
  %58 = getelementptr inbounds nuw %struct.LimitState, ptr %57, i32 0, i32 2
  %59 = load ptr, ptr %58, align 8
  %60 = load ptr, ptr %3, align 8
  %61 = call i64 @ExecEvalExprSwitchContext(ptr noundef %59, ptr noundef %60, ptr noundef %5)
  store i64 %61, ptr %4, align 8
  %62 = load i8, ptr %5, align 1, !range !4, !noundef !5
  %63 = trunc i8 %62 to i1
  br i1 %63, label %64, label %69

64:                                               ; preds = %56
  %65 = load ptr, ptr %2, align 8
  %66 = getelementptr inbounds nuw %struct.LimitState, ptr %65, i32 0, i32 5
  store i64 0, ptr %66, align 8
  %67 = load ptr, ptr %2, align 8
  %68 = getelementptr inbounds nuw %struct.LimitState, ptr %67, i32 0, i32 6
  store i8 1, ptr %68, align 8
  br label %93

69:                                               ; preds = %56
  %70 = load i64, ptr %4, align 8
  %71 = call i64 @DatumGetInt64(i64 noundef %70)
  %72 = load ptr, ptr %2, align 8
  %73 = getelementptr inbounds nuw %struct.LimitState, ptr %72, i32 0, i32 5
  store i64 %71, ptr %73, align 8
  %74 = load ptr, ptr %2, align 8
  %75 = getelementptr inbounds nuw %struct.LimitState, ptr %74, i32 0, i32 5
  %76 = load i64, ptr %75, align 8
  %77 = icmp slt i64 %76, 0
  br i1 %77, label %78, label %90

78:                                               ; preds = %69
  br label %79

79:                                               ; preds = %78
  br i1 true, label %80, label %82

80:                                               ; preds = %79
  %81 = call zeroext i1 @errstart_cold(i32 noundef 21, ptr noundef null) #7
  br i1 %81, label %84, label %87

82:                                               ; preds = %79
  %83 = call zeroext i1 @errstart(i32 noundef 21, ptr noundef null)
  br i1 %83, label %84, label %87

84:                                               ; preds = %82, %80
  %85 = call i32 @errcode(i32 noundef 654573698)
  %86 = call i32 (ptr, ...) @errmsg(ptr noundef @.str.4)
  call void @errfinish(ptr noundef @.str.1, i32 noundef 399, ptr noundef @__func__.recompute_limits)
  br label %87

87:                                               ; preds = %84, %82, %80
  unreachable

88:                                               ; No predecessors!
  br label %89

89:                                               ; preds = %88
  br label %90

90:                                               ; preds = %89, %69
  %91 = load ptr, ptr %2, align 8
  %92 = getelementptr inbounds nuw %struct.LimitState, ptr %91, i32 0, i32 6
  store i8 0, ptr %92, align 8
  br label %93

93:                                               ; preds = %90, %64
  br label %99

94:                                               ; preds = %51
  %95 = load ptr, ptr %2, align 8
  %96 = getelementptr inbounds nuw %struct.LimitState, ptr %95, i32 0, i32 5
  store i64 0, ptr %96, align 8
  %97 = load ptr, ptr %2, align 8
  %98 = getelementptr inbounds nuw %struct.LimitState, ptr %97, i32 0, i32 6
  store i8 1, ptr %98, align 8
  br label %99

99:                                               ; preds = %94, %93
  %100 = load ptr, ptr %2, align 8
  %101 = getelementptr inbounds nuw %struct.LimitState, ptr %100, i32 0, i32 8
  store i64 0, ptr %101, align 8
  %102 = load ptr, ptr %2, align 8
  %103 = getelementptr inbounds nuw %struct.LimitState, ptr %102, i32 0, i32 9
  store ptr null, ptr %103, align 8
  %104 = load ptr, ptr %2, align 8
  %105 = getelementptr inbounds nuw %struct.LimitState, ptr %104, i32 0, i32 7
  store i32 1, ptr %105, align 4
  %106 = load ptr, ptr %2, align 8
  %107 = call i64 @compute_tuples_needed(ptr noundef %106)
  %108 = load ptr, ptr %2, align 8
  %109 = getelementptr inbounds nuw %struct.PlanState, ptr %108, i32 0, i32 9
  %110 = load ptr, ptr %109, align 8
  call void @ExecSetTupleBound(i64 noundef %107, ptr noundef %110)
  call void @llvm.lifetime.end.p0(i64 1, ptr %5) #6
  call void @llvm.lifetime.end.p0(i64 8, ptr %4) #6
  call void @llvm.lifetime.end.p0(i64 8, ptr %3) #6
  ret void
}