; Function Attrs: nounwind uwtable
define internal fastcc void @recompute_limits(ptr noundef captures(none) initializes((224, 232)) %0) unnamed_addr #0 {
  %2 = alloca i8, align 1
  %3 = getelementptr inbounds nuw i8, ptr %0, i64 128
  %4 = load ptr, ptr %3, align 8
  call void @llvm.lifetime.start.p0(i64 1, ptr nonnull %2) #6
  %5 = getelementptr inbounds nuw i8, ptr %0, i64 200
  %6 = load ptr, ptr %5, align 8
  %.not = icmp eq ptr %6, null
  br i1 %.not, label %24, label %7

7:                                                ; preds = %1
  %8 = getelementptr inbounds nuw i8, ptr %4, i64 40
  %9 = load ptr, ptr %8, align 8
  %10 = load ptr, ptr @CurrentMemoryContext, align 8
  store ptr %9, ptr @CurrentMemoryContext, align 8
  %11 = getelementptr inbounds nuw i8, ptr %6, i64 32
  %12 = load ptr, ptr %11, align 8
  %13 = call i64 %12(ptr noundef nonnull %6, ptr noundef %4, ptr noundef nonnull %2) #6
  store ptr %10, ptr @CurrentMemoryContext, align 8
  %14 = load i8, ptr %2, align 1, !range !5, !noundef !6
  %15 = trunc nuw i8 %14 to i1
  %16 = getelementptr inbounds nuw i8, ptr %0, i64 224
  br i1 %15, label %17, label %18

17:                                               ; preds = %7
  store i64 0, ptr %16, align 8
  br label %26

18:                                               ; preds = %7
  store i64 %13, ptr %16, align 8
  %19 = icmp slt i64 %13, 0
  br i1 %19, label %20, label %26

20:                                               ; preds = %18
  %21 = call zeroext i1 @errstart_cold(i32 noundef 21, ptr noundef null) #7
  call void @llvm.assume(i1 %21)
  %22 = call i32 @errcode(i32 noundef 671350914) #6
  %23 = call i32 (ptr, ...) @errmsg(ptr noundef nonnull @.str.3) #6
  call void @errfinish(ptr noundef nonnull @.str.1, i32 noundef 373, ptr noundef nonnull @__func__.recompute_limits) #6
  unreachable

24:                                               ; preds = %1
  %25 = getelementptr inbounds nuw i8, ptr %0, i64 224
  store i64 0, ptr %25, align 8
  br label %26

26:                                               ; preds = %17, %18, %24
  %27 = getelementptr inbounds nuw i8, ptr %0, i64 208
  %28 = load ptr, ptr %27, align 8
  %.not25 = icmp eq ptr %28, null
  br i1 %.not25, label %46, label %29

29:                                               ; preds = %26
  %30 = getelementptr inbounds nuw i8, ptr %4, i64 40
  %31 = load ptr, ptr %30, align 8
  %32 = load ptr, ptr @CurrentMemoryContext, align 8
  store ptr %31, ptr @CurrentMemoryContext, align 8
  %33 = getelementptr inbounds nuw i8, ptr %28, i64 32
  %34 = load ptr, ptr %33, align 8
  %35 = call i64 %34(ptr noundef nonnull %28, ptr noundef %4, ptr noundef nonnull %2) #6
  store ptr %32, ptr @CurrentMemoryContext, align 8
  %36 = load i8, ptr %2, align 1, !range !5, !noundef !6
  %37 = trunc nuw i8 %36 to i1
  %38 = getelementptr inbounds nuw i8, ptr %0, i64 232
  br i1 %37, label %39, label %40

39:                                               ; preds = %29
  store i64 0, ptr %38, align 8
  br label %.thread

40:                                               ; preds = %29
  store i64 %35, ptr %38, align 8
  %41 = icmp slt i64 %35, 0
  br i1 %41, label %42, label %51

42:                                               ; preds = %40
  %43 = call zeroext i1 @errstart_cold(i32 noundef 21, ptr noundef null) #7
  call void @llvm.assume(i1 %43)
  %44 = call i32 @errcode(i32 noundef 654573698) #6
  %45 = call i32 (ptr, ...) @errmsg(ptr noundef nonnull @.str.4) #6
  call void @errfinish(ptr noundef nonnull @.str.1, i32 noundef 399, ptr noundef nonnull @__func__.recompute_limits) #6
  unreachable

46:                                               ; preds = %26
  %47 = getelementptr inbounds nuw i8, ptr %0, i64 232
  store i64 0, ptr %47, align 8
  br label %.thread

.thread:                                          ; preds = %39, %46
  %48 = getelementptr inbounds nuw i8, ptr %0, i64 240
  store i8 1, ptr %48, align 8
  %49 = getelementptr inbounds nuw i8, ptr %0, i64 248
  %50 = getelementptr inbounds nuw i8, ptr %0, i64 244
  call void @llvm.memset.p0.i64(ptr noundef nonnull align 8 dereferenceable(16) %49, i8 0, i64 16, i1 false)
  store i32 1, ptr %50, align 4
  br label %compute_tuples_needed.exit

51:                                               ; preds = %40
  %52 = getelementptr inbounds nuw i8, ptr %0, i64 240
  store i8 0, ptr %52, align 8
  %53 = getelementptr inbounds nuw i8, ptr %0, i64 248
  %54 = getelementptr inbounds nuw i8, ptr %0, i64 244
  call void @llvm.memset.p0.i64(ptr noundef nonnull align 8 dereferenceable(16) %53, i8 0, i64 16, i1 false)
  store i32 1, ptr %54, align 4
  %55 = getelementptr inbounds nuw i8, ptr %0, i64 216
  %56 = load i32, ptr %55, align 8
  %57 = icmp eq i32 %56, 1
  br i1 %57, label %compute_tuples_needed.exit, label %58

58:                                               ; preds = %51
  %59 = getelementptr inbounds nuw i8, ptr %0, i64 224
  %60 = load i64, ptr %59, align 8
  %61 = add i64 %60, %35
  br label %compute_tuples_needed.exit

compute_tuples_needed.exit:                       ; preds = %.thread, %51, %58
  %.0.i = phi i64 [ %61, %58 ], [ -1, %51 ], [ -1, %.thread ]
  %62 = getelementptr inbounds nuw i8, ptr %0, i64 72
  %63 = load ptr, ptr %62, align 8
  call void @ExecSetTupleBound(i64 noundef %.0.i, ptr noundef %63) #6
  call void @llvm.lifetime.end.p0(i64 1, ptr nonnull %2) #6
  ret void
}